; Function Attrs: nounwind uwtable
define noalias nonnull ptr @lean_mk_io_error_permission_denied_file(ptr noundef %0, i32 noundef %1, ptr noundef %2) local_unnamed_addr #0 {
  tail call void @lean_inc_heartbeat() #4
  %4 = tail call noalias ptr @mi_malloc_small(i64 noundef 16) #4
  %5 = icmp eq ptr %4, null
  br i1 %5, label %6, label %lean_alloc_ctor.exit

6:                                                ; preds = %3
  tail call void @lean_internal_panic_out_of_memory() #5
  unreachable

lean_alloc_ctor.exit:                             ; preds = %3
  %7 = getelementptr inbounds nuw i8, ptr %4, i64 4
  store i32 1, ptr %4, align 4, !tbaa !4
  store i32 16842768, ptr %7, align 4
  %8 = getelementptr inbounds nuw i8, ptr %4, i64 8
  store ptr %0, ptr %8, align 8, !tbaa !9
  tail call void @lean_inc_heartbeat() #4
  %9 = tail call noalias ptr @mi_malloc_small(i64 noundef 32) #4
  %10 = icmp eq ptr %9, null
  br i1 %10, label %11, label %lean_alloc_ctor.exit8

11:                                               ; preds = %lean_alloc_ctor.exit
  tail call void @lean_internal_panic_out_of_memory() #5
  unreachable

lean_alloc_ctor.exit8:                            ; preds = %lean_alloc_ctor.exit
  %12 = getelementptr inbounds nuw i8, ptr %9, i64 4
  %13 = getelementptr inbounds nuw i8, ptr %9, i64 24
  store i64 0, ptr %13, align 8, !tbaa !11
  store i32 1, ptr %9, align 4, !tbaa !4
  store i32 218234912, ptr %12, align 4
  %14 = getelementptr inbounds nuw i8, ptr %9, i64 8
  store ptr %4, ptr %14, align 8, !tbaa !9
  %15 = getelementptr inbounds nuw i8, ptr %9, i64 16
  store ptr %2, ptr %15, align 8, !tbaa !9
  store i32 %1, ptr %13, align 4, !tbaa !13
  ret ptr %9
}